target datalayout = "e-m:e-p270:32:32-p271:32:32-p272:64:64-i64:64-i128:128-f80:128-n8:16:32:64-S128"
target triple = "x86_64-pc-linux-gnu"

%struct.TclStubs = type { i32, ptr, ptr, ptr, ptr, ptr, ptr, ptr, ptr, ptr, ptr, ptr, ptr, ptr, ptr, ptr, ptr, ptr, ptr, ptr, ptr, ptr, ptr, ptr, ptr, ptr, ptr, ptr, ptr, ptr, ptr, ptr, ptr, ptr, ptr, ptr, ptr, ptr, ptr, ptr, ptr, ptr, ptr, ptr, ptr, ptr, ptr, ptr, ptr, ptr, ptr, ptr, ptr, ptr, ptr, ptr, ptr, ptr, ptr, ptr, ptr, ptr, ptr, ptr, ptr, ptr, ptr, ptr, ptr, ptr, ptr, ptr, ptr, ptr, ptr, ptr, ptr, ptr, ptr, ptr, ptr, ptr, ptr, ptr, ptr, ptr, ptr, ptr, ptr, ptr, ptr, ptr, ptr, ptr, ptr, ptr, ptr, ptr, ptr, ptr, ptr, ptr, ptr, ptr, ptr, ptr, ptr, ptr, ptr, ptr, ptr, ptr, ptr, ptr, ptr, ptr, ptr, ptr, ptr, ptr, ptr, ptr, ptr, ptr, ptr, ptr, ptr, ptr, ptr, ptr, ptr, ptr, ptr, ptr, ptr, ptr, ptr, ptr, ptr, ptr, ptr, ptr, ptr, ptr, ptr, ptr, ptr, ptr, ptr, ptr, ptr, ptr, ptr, ptr, ptr, ptr, ptr, ptr, ptr, ptr, ptr, ptr, ptr, ptr, ptr, ptr, ptr, ptr, ptr, ptr, ptr, ptr, ptr, ptr, ptr, ptr, ptr, ptr, ptr, ptr, ptr, ptr, ptr, ptr, ptr, ptr, ptr, ptr, ptr, ptr, ptr, ptr, ptr, ptr, ptr, ptr, ptr, ptr, ptr, ptr, ptr, ptr, ptr, ptr, ptr, ptr, ptr, ptr, ptr, ptr, ptr, ptr, ptr, ptr, ptr, ptr, ptr, ptr, ptr, ptr, ptr, ptr, ptr, ptr, ptr, ptr, ptr, ptr, ptr, ptr, ptr, ptr, ptr, ptr, ptr, ptr, ptr, ptr, ptr, ptr, ptr, ptr, ptr, ptr, ptr, ptr, ptr, ptr, ptr, ptr, ptr, ptr, ptr, ptr, ptr, ptr, ptr, ptr, ptr, ptr, ptr, ptr, ptr, ptr, ptr, ptr, ptr, ptr, ptr, ptr, ptr, ptr, ptr, ptr, ptr, ptr, ptr, ptr, ptr, ptr, ptr, ptr, ptr, ptr, ptr, ptr, ptr, ptr, ptr, ptr, ptr, ptr, ptr, ptr, ptr, ptr, ptr, ptr, ptr, ptr, ptr, ptr, ptr, ptr, ptr, ptr, ptr, ptr, ptr, ptr, ptr, ptr, ptr, ptr, ptr, ptr, ptr, ptr, ptr, ptr, ptr, ptr, ptr, ptr, ptr, ptr, ptr, ptr, ptr, ptr, ptr, ptr, ptr, ptr, ptr, ptr, ptr, ptr, ptr, ptr, ptr, ptr, ptr, ptr, ptr, ptr, ptr, ptr, ptr, ptr, ptr, ptr, ptr, ptr, ptr, ptr, ptr, ptr, ptr, ptr, ptr, ptr, ptr, ptr, ptr, ptr, ptr, ptr, ptr, ptr, ptr, ptr, ptr, ptr, ptr, ptr, ptr, ptr, ptr, ptr, ptr, ptr, ptr, ptr, ptr, ptr, ptr, ptr, ptr, ptr, ptr, ptr, ptr, ptr, ptr, ptr, ptr, ptr, ptr, ptr, ptr, ptr, ptr, ptr, ptr, ptr, ptr, ptr, ptr, ptr, ptr, ptr, ptr, ptr, ptr, ptr, ptr, ptr, ptr, ptr, ptr, ptr, ptr, ptr, ptr, ptr, ptr, ptr, ptr, ptr, ptr, ptr, ptr, ptr, ptr, ptr, ptr, ptr, ptr, ptr, ptr, ptr, ptr, ptr, ptr, ptr, ptr, ptr, ptr, ptr, ptr, ptr, ptr, ptr, ptr, ptr, ptr, ptr, ptr, ptr, ptr, ptr, ptr, ptr, ptr, ptr, ptr, ptr, ptr, ptr, ptr, ptr, ptr, ptr, ptr, ptr, ptr, ptr, ptr, ptr, ptr, ptr, ptr, ptr, ptr, ptr, ptr, ptr, ptr, ptr, ptr, ptr, ptr, ptr, ptr, ptr, ptr, ptr, ptr, ptr, ptr, ptr, ptr, ptr, ptr, ptr, ptr, ptr, ptr, ptr, ptr, ptr, ptr, ptr, ptr, ptr, ptr, ptr, ptr, ptr, ptr, ptr, ptr, ptr, ptr, ptr, ptr, ptr, ptr, ptr, ptr, ptr, ptr, ptr, ptr, ptr, ptr, ptr, ptr, ptr, ptr, ptr, ptr, ptr, ptr, ptr, ptr, ptr, ptr, ptr, ptr, ptr, ptr, ptr, ptr, ptr, ptr, ptr, ptr, ptr, ptr, ptr, ptr, ptr, ptr, ptr, ptr, ptr, ptr, ptr, ptr, ptr, ptr, ptr, ptr, ptr, ptr, ptr, ptr, ptr, ptr, ptr, ptr, ptr, ptr, ptr, ptr, ptr, ptr, ptr, ptr, ptr, ptr, ptr, ptr, ptr, ptr, ptr, ptr, ptr, ptr, ptr, ptr, ptr, ptr, ptr, ptr, ptr, ptr, ptr, ptr, ptr, ptr, ptr, ptr, ptr, ptr, ptr, ptr, ptr, ptr, ptr, ptr, ptr, ptr, ptr, ptr, ptr, ptr, ptr, ptr, ptr, ptr, ptr, ptr, ptr, ptr, ptr, ptr, ptr, ptr, ptr, ptr, ptr, ptr, ptr, ptr, ptr, ptr, ptr, ptr, ptr, ptr, ptr, ptr, ptr, ptr, ptr, ptr, ptr, ptr, ptr, ptr }
%struct.DbEvalContext = type { ptr, ptr, ptr, ptr, i32, i32, ptr, ptr }
%struct.Tcl_Obj = type { i32, ptr, i32, ptr, %union.anon }
%union.anon = type { %struct.anon }
%struct.anon = type { ptr, ptr }
%struct.SqlPreparedStmt = type { ptr, ptr, ptr, i32, ptr, i32, ptr }

@tclStubsPtr = external global ptr, align 8

; Function Attrs: nounwind uwtable
define internal void @dbReleaseColumnNames(ptr noundef %0) #0 {
  %2 = alloca ptr, align 8
  %3 = alloca i32, align 4
  %4 = alloca ptr, align 8
  store ptr %0, ptr %2, align 8, !tbaa !107
  %5 = load ptr, ptr %2, align 8, !tbaa !107
  %6 = getelementptr inbounds nuw %struct.DbEvalContext, ptr %5, i32 0, i32 7
  %7 = load ptr, ptr %6, align 8, !tbaa !168
  %8 = icmp ne ptr %7, null
  br i1 %8, label %9, label %50

9:                                                ; preds = %1
  call void @llvm.lifetime.start.p0(i64 4, ptr %3) #10
  store i32 0, ptr %3, align 4, !tbaa !8
  br label %10

10:                                               ; preds = %38, %9
  %11 = load i32, ptr %3, align 4, !tbaa !8
  %12 = load ptr, ptr %2, align 8, !tbaa !107
  %13 = getelementptr inbounds nuw %struct.DbEvalContext, ptr %12, i32 0, i32 4
  %14 = load i32, ptr %13, align 8, !tbaa !169
  %15 = icmp slt i32 %11, %14
  br i1 %15, label %16, label %41

16:                                               ; preds = %10
  br label %17

17:                                               ; preds = %16
  call void @llvm.lifetime.start.p0(i64 8, ptr %4) #10
  %18 = load ptr, ptr %2, align 8, !tbaa !107
  %19 = getelementptr inbounds nuw %struct.DbEvalContext, ptr %18, i32 0, i32 7
  %20 = load ptr, ptr %19, align 8, !tbaa !168
  %21 = load i32, ptr %3, align 4, !tbaa !8
  %22 = sext i32 %21 to i64
  %23 = getelementptr inbounds ptr, ptr %20, i64 %22
  %24 = load ptr, ptr %23, align 8, !tbaa !21
  store ptr %24, ptr %4, align 8, !tbaa !21
  %25 = load ptr, ptr %4, align 8, !tbaa !21
  %26 = getelementptr inbounds nuw %struct.Tcl_Obj, ptr %25, i32 0, i32 0
  %27 = load i32, ptr %26, align 8, !tbaa !70
  %28 = add nsw i32 %27, -1
  store i32 %28, ptr %26, align 8, !tbaa !70
  %29 = icmp sle i32 %27, 1
  br i1 %29, label %30, label %35

30:                                               ; preds = %17
  %31 = load ptr, ptr @tclStubsPtr, align 8, !tbaa !10
  %32 = getelementptr inbounds nuw %struct.TclStubs, ptr %31, i32 0, i32 32
  %33 = load ptr, ptr %32, align 8, !tbaa !73
  %34 = load ptr, ptr %4, align 8, !tbaa !21
  call void %33(ptr noundef %34)
  br label %35

35:                                               ; preds = %30, %17
  call void @llvm.lifetime.end.p0(i64 8, ptr %4) #10
  br label %36

36:                                               ; preds = %35
  br label %37

37:                                               ; preds = %36
  br label %38

38:                                               ; preds = %37
  %39 = load i32, ptr %3, align 4, !tbaa !8
  %40 = add nsw i32 %39, 1
  store i32 %40, ptr %3, align 4, !tbaa !8
  br label %10, !llvm.loop !227

41:                                               ; preds = %10
  %42 = load ptr, ptr @tclStubsPtr, align 8, !tbaa !10
  %43 = getelementptr inbounds nuw %struct.TclStubs, ptr %42, i32 0, i32 6
  %44 = load ptr, ptr %43, align 8, !tbaa !42
  %45 = load ptr, ptr %2, align 8, !tbaa !107
  %46 = getelementptr inbounds nuw %struct.DbEvalContext, ptr %45, i32 0, i32 7
  %47 = load ptr, ptr %46, align 8, !tbaa !168
  call void %44(ptr noundef %47)
  %48 = load ptr, ptr %2, align 8, !tbaa !107
  %49 = getelementptr inbounds nuw %struct.DbEvalContext, ptr %48, i32 0, i32 7
  store ptr null, ptr %49, align 8, !tbaa !168
  call void @llvm.lifetime.end.p0(i64 4, ptr %3) #10
  br label %50

50:                                               ; preds = %41, %1
  %51 = load ptr, ptr %2, align 8, !tbaa !107
  %52 = getelementptr inbounds nuw %struct.DbEvalContext, ptr %51, i32 0, i32 4
  store i32 0, ptr %52, align 8, !tbaa !169
  ret void
}

; Function Attrs: nounwind uwtable
define internal void @dbEvalFinalize(ptr noundef %0) #0 {
  %2 = alloca ptr, align 8
  %3 = alloca ptr, align 8
  %4 = alloca ptr, align 8
  store ptr %0, ptr %2, align 8, !tbaa !107
  %5 = load ptr, ptr %2, align 8, !tbaa !107
  %6 = getelementptr inbounds nuw %struct.DbEvalContext, ptr %5, i32 0, i32 3
  %7 = load ptr, ptr %6, align 8, !tbaa !159
  %8 = icmp ne ptr %7, null
  br i1 %8, label %9, label %24

9:                                                ; preds = %1
  %10 = load ptr, ptr %2, align 8, !tbaa !107
  %11 = getelementptr inbounds nuw %struct.DbEvalContext, ptr %10, i32 0, i32 3
  %12 = load ptr, ptr %11, align 8, !tbaa !159
  %13 = getelementptr inbounds nuw %struct.SqlPreparedStmt, ptr %12, i32 0, i32 2
  %14 = load ptr, ptr %13, align 8, !tbaa !160
  %15 = call i32 @sqlite3_reset(ptr noundef %14)
  %16 = load ptr, ptr %2, align 8, !tbaa !107
  %17 = getelementptr inbounds nuw %struct.DbEvalContext, ptr %16, i32 0, i32 0
  %18 = load ptr, ptr %17, align 8, !tbaa !153
  %19 = load ptr, ptr %2, align 8, !tbaa !107
  %20 = getelementptr inbounds nuw %struct.DbEvalContext, ptr %19, i32 0, i32 3
  %21 = load ptr, ptr %20, align 8, !tbaa !159
  call void @dbReleaseStmt(ptr noundef %18, ptr noundef %21, i32 noundef 0)
  %22 = load ptr, ptr %2, align 8, !tbaa !107
  %23 = getelementptr inbounds nuw %struct.DbEvalContext, ptr %22, i32 0, i32 3
  store ptr null, ptr %23, align 8, !tbaa !159
  br label %24

24:                                               ; preds = %9, %1
  %25 = load ptr, ptr %2, align 8, !tbaa !107
  %26 = getelementptr inbounds nuw %struct.DbEvalContext, ptr %25, i32 0, i32 6
  %27 = load ptr, ptr %26, align 8, !tbaa !157
  %28 = icmp ne ptr %27, null
  br i1 %28, label %29, label %48

29:                                               ; preds = %24
  br label %30

30:                                               ; preds = %29
  call void @llvm.lifetime.start.p0(i64 8, ptr %3) #10
  %31 = load ptr, ptr %2, align 8, !tbaa !107
  %32 = getelementptr inbounds nuw %struct.DbEvalContext, ptr %31, i32 0, i32 6
  %33 = load ptr, ptr %32, align 8, !tbaa !157
  store ptr %33, ptr %3, align 8, !tbaa !21
  %34 = load ptr, ptr %3, align 8, !tbaa !21
  %35 = getelementptr inbounds nuw %struct.Tcl_Obj, ptr %34, i32 0, i32 0
  %36 = load i32, ptr %35, align 8, !tbaa !70
  %37 = add nsw i32 %36, -1
  store i32 %37, ptr %35, align 8, !tbaa !70
  %38 = icmp sle i32 %36, 1
  br i1 %38, label %39, label %44

39:                                               ; preds = %30
  %40 = load ptr, ptr @tclStubsPtr, align 8, !tbaa !10
  %41 = getelementptr inbounds nuw %struct.TclStubs, ptr %40, i32 0, i32 32
  %42 = load ptr, ptr %41, align 8, !tbaa !73
  %43 = load ptr, ptr %3, align 8, !tbaa !21
  call void %42(ptr noundef %43)
  br label %44

44:                                               ; preds = %39, %30
  call void @llvm.lifetime.end.p0(i64 8, ptr %3) #10
  br label %45

45:                                               ; preds = %44
  %46 = load ptr, ptr %2, align 8, !tbaa !107
  %47 = getelementptr inbounds nuw %struct.DbEvalContext, ptr %46, i32 0, i32 6
  store ptr null, ptr %47, align 8, !tbaa !157
  br label %48

48:                                               ; preds = %45, %24
  br label %49

49:                                               ; preds = %48
  call void @llvm.lifetime.start.p0(i64 8, ptr %4) #10
  %50 = load ptr, ptr %2, align 8, !tbaa !107
  %51 = getelementptr inbounds nuw %struct.DbEvalContext, ptr %50, i32 0, i32 1
  %52 = load ptr, ptr %51, align 8, !tbaa !156
  store ptr %52, ptr %4, align 8, !tbaa !21
  %53 = load ptr, ptr %4, align 8, !tbaa !21
  %54 = getelementptr inbounds nuw %struct.Tcl_Obj, ptr %53, i32 0, i32 0
  %55 = load i32, ptr %54, align 8, !tbaa !70
  %56 = add nsw i32 %55, -1
  store i32 %56, ptr %54, align 8, !tbaa !70
  %57 = icmp sle i32 %55, 1
  br i1 %57, label %58, label %63

58:                                               ; preds = %49
  %59 = load ptr, ptr @tclStubsPtr, align 8, !tbaa !10
  %60 = getelementptr inbounds nuw %struct.TclStubs, ptr %59, i32 0, i32 32
  %61 = load ptr, ptr %60, align 8, !tbaa !73
  %62 = load ptr, ptr %4, align 8, !tbaa !21
  call void %61(ptr noundef %62)
  br label %63

63:                                               ; preds = %58, %49
  call void @llvm.lifetime.end.p0(i64 8, ptr %4) #10
  br label %64

64:                                               ; preds = %63
  %65 = load ptr, ptr %2, align 8, !tbaa !107
  call void @dbReleaseColumnNames(ptr noundef %65)
  %66 = load ptr, ptr %2, align 8, !tbaa !107
  %67 = getelementptr inbounds nuw %struct.DbEvalContext, ptr %66, i32 0, i32 0
  %68 = load ptr, ptr %67, align 8, !tbaa !153
  call void @delDatabaseRef(ptr noundef %68)
  ret void
}