; Function Attrs: nounwind uwtable
define internal fastcc void @dbEvalFinalize(ptr noundef captures(none) %0) unnamed_addr #0 {
  %2 = getelementptr inbounds nuw i8, ptr %0, i64 24
  %3 = load ptr, ptr %2, align 8, !tbaa !139
  %.not = icmp eq ptr %3, null
  br i1 %.not, label %10, label %4

4:                                                ; preds = %1
  %5 = getelementptr inbounds nuw i8, ptr %3, i64 16
  %6 = load ptr, ptr %5, align 8, !tbaa !133
  %7 = tail call i32 @sqlite3_reset(ptr noundef %6) #14
  %8 = load ptr, ptr %0, align 8, !tbaa !90
  %9 = load ptr, ptr %2, align 8, !tbaa !139
  tail call fastcc void @dbReleaseStmt(ptr noundef %8, ptr noundef %9, i32 noundef 0)
  store ptr null, ptr %2, align 8, !tbaa !139
  br label %10

10:                                               ; preds = %4, %1
  %11 = getelementptr inbounds nuw i8, ptr %0, i64 40
  %12 = load ptr, ptr %11, align 8, !tbaa !138
  %.not16 = icmp eq ptr %12, null
  br i1 %.not16, label %22, label %13

13:                                               ; preds = %10
  %14 = load i32, ptr %12, align 8, !tbaa !61
  %15 = add nsw i32 %14, -1
  store i32 %15, ptr %12, align 8, !tbaa !61
  %16 = icmp slt i32 %14, 2
  br i1 %16, label %17, label %21

17:                                               ; preds = %13
  %18 = load ptr, ptr @tclStubsPtr, align 8, !tbaa !3
  %19 = getelementptr inbounds nuw i8, ptr %18, i64 256
  %20 = load ptr, ptr %19, align 8, !tbaa !64
  tail call void %20(ptr noundef nonnull %12) #14
  br label %21

21:                                               ; preds = %17, %13
  store ptr null, ptr %11, align 8, !tbaa !138
  br label %22

22:                                               ; preds = %10, %21
  %23 = getelementptr inbounds nuw i8, ptr %0, i64 8
  %24 = load ptr, ptr %23, align 8, !tbaa !95
  %25 = load i32, ptr %24, align 8, !tbaa !61
  %26 = add nsw i32 %25, -1
  store i32 %26, ptr %24, align 8, !tbaa !61
  %27 = icmp slt i32 %25, 2
  br i1 %27, label %28, label %32

28:                                               ; preds = %22
  %29 = load ptr, ptr @tclStubsPtr, align 8, !tbaa !3
  %30 = getelementptr inbounds nuw i8, ptr %29, i64 256
  %31 = load ptr, ptr %30, align 8, !tbaa !64
  tail call void %31(ptr noundef nonnull %24) #14
  br label %32

32:                                               ; preds = %28, %22
  %33 = getelementptr inbounds nuw i8, ptr %0, i64 48
  %34 = load ptr, ptr %33, align 8, !tbaa !163
  %.not.i = icmp eq ptr %34, null
  br i1 %.not.i, label %dbReleaseColumnNames.exit, label %.preheader.i

.preheader.i:                                     ; preds = %32
  %35 = getelementptr inbounds nuw i8, ptr %0, i64 32
  %36 = load i32, ptr %35, align 8, !tbaa !164
  %37 = icmp sgt i32 %36, 0
  br i1 %37, label %.lr.ph.i, label %._crit_edge.i

.lr.ph.i:                                         ; preds = %.preheader.i, %49
  %38 = phi i32 [ %50, %49 ], [ %36, %.preheader.i ]
  %indvars.iv.i = phi i64 [ %indvars.iv.next.i, %49 ], [ 0, %.preheader.i ]
  %39 = load ptr, ptr %33, align 8, !tbaa !163
  %40 = getelementptr inbounds nuw ptr, ptr %39, i64 %indvars.iv.i
  %41 = load ptr, ptr %40, align 8, !tbaa !15
  %42 = load i32, ptr %41, align 8, !tbaa !61
  %43 = add nsw i32 %42, -1
  store i32 %43, ptr %41, align 8, !tbaa !61
  %44 = icmp slt i32 %42, 2
  br i1 %44, label %45, label %49

45:                                               ; preds = %.lr.ph.i
  %46 = load ptr, ptr @tclStubsPtr, align 8, !tbaa !3
  %47 = getelementptr inbounds nuw i8, ptr %46, i64 256
  %48 = load ptr, ptr %47, align 8, !tbaa !64
  tail call void %48(ptr noundef nonnull %41) #14
  %.pre.i = load i32, ptr %35, align 8, !tbaa !164
  br label %49

49:                                               ; preds = %45, %.lr.ph.i
  %50 = phi i32 [ %.pre.i, %45 ], [ %38, %.lr.ph.i ]
  %indvars.iv.next.i = add nuw nsw i64 %indvars.iv.i, 1
  %51 = sext i32 %50 to i64
  %52 = icmp slt i64 %indvars.iv.next.i, %51
  br i1 %52, label %.lr.ph.i, label %._crit_edge.loopexit.i, !llvm.loop !165

._crit_edge.loopexit.i:                           ; preds = %49
  %.pre12.i = load ptr, ptr %33, align 8, !tbaa !163
  br label %._crit_edge.i

._crit_edge.i:                                    ; preds = %._crit_edge.loopexit.i, %.preheader.i
  %53 = phi ptr [ %.pre12.i, %._crit_edge.loopexit.i ], [ %34, %.preheader.i ]
  %54 = load ptr, ptr @tclStubsPtr, align 8, !tbaa !3
  %55 = getelementptr inbounds nuw i8, ptr %54, i64 48
  %56 = load ptr, ptr %55, align 8, !tbaa !36
  tail call void %56(ptr noundef %53) #14
  store ptr null, ptr %33, align 8, !tbaa !163
  br label %dbReleaseColumnNames.exit

dbReleaseColumnNames.exit:                        ; preds = %32, %._crit_edge.i
  %57 = getelementptr inbounds nuw i8, ptr %0, i64 32
  store i32 0, ptr %57, align 8, !tbaa !164
  %58 = load ptr, ptr %0, align 8, !tbaa !90
  tail call fastcc void @delDatabaseRef(ptr noundef %58)
  ret void
}